; Function Attrs: cold nounwind optsize uwtable
define internal fastcc range(i32 -12, 1) i32 @write_ident(ptr noundef writeonly captures(none) initializes((72, 80)) %0, ptr noundef readonly captures(none) %1) unnamed_addr #0 {
  %3 = tail call i64 @strlen(ptr noundef nonnull dereferenceable(1) %1) #13
  %4 = trunc i64 %3 to i32
  %5 = add nsw i32 %4, 8
  %6 = sext i32 %5 to i64
  %7 = tail call noalias ptr @av_malloc(i64 noundef %6) #10
  %8 = getelementptr inbounds nuw i8, ptr %0, i64 72
  store ptr %7, ptr %8, align 8, !tbaa !154
  %.not = icmp eq ptr %7, null
  br i1 %.not, label %15, label %9

9:                                                ; preds = %2
  %10 = tail call i32 @llvm.bswap.i32(i32 %5)
  store i32 %10, ptr %7, align 1, !tbaa !99
  %11 = getelementptr inbounds nuw i8, ptr %7, i64 4
  store i32 827414099, ptr %11, align 1, !tbaa !99
  %12 = getelementptr inbounds nuw i8, ptr %7, i64 8
  %sext = shl i64 %3, 32
  %13 = ashr exact i64 %sext, 32
  tail call void @llvm.memcpy.p0.p0.i64(ptr nonnull align 1 %12, ptr nonnull align 1 %1, i64 %13, i1 false)
  %14 = getelementptr inbounds nuw i8, ptr %0, i64 80
  store i32 %5, ptr %14, align 8, !tbaa !155
  br label %15

15:                                               ; preds = %2, %9
  %.0 = phi i32 [ 0, %9 ], [ -12, %2 ]
  ret i32 %.0
}